target datalayout = "e-m:e-p270:32:32-p271:32:32-p272:64:64-i64:64-i128:128-f80:128-n8:16:32:64-S128"
target triple = "x86_64-pc-linux-gnu"

%"struct.boost::unit_test::(anonymous namespace)::progress_monitor_impl" = type <{ ptr, %"class.boost::scoped_ptr", i8, [7 x i8] }>
%"class.boost::scoped_ptr" = type { ptr }

; Function Attrs: inlinehint mustprogress nounwind uwtable
define linkonce_odr hidden void @_ZN5boost14checked_deleteINS_9unit_test16progress_displayEEEvPT_(ptr noundef %0) #7 comdat {
  %2 = alloca ptr, align 8
  store ptr %0, ptr %2, align 8, !tbaa !3
  %3 = load ptr, ptr %2, align 8, !tbaa !3
  %4 = icmp eq ptr %3, null
  br i1 %4, label %6, label %5

5:                                                ; preds = %1
  call void @_ZdlPvm(ptr noundef %3, i64 noundef 40) #17
  br label %6

6:                                                ; preds = %5, %1
  ret void
}

; Function Attrs: mustprogress nounwind uwtable
define linkonce_odr hidden void @_ZN5boost10scoped_ptrINS_9unit_test16progress_displayEED2Ev(ptr noundef nonnull align 8 dereferenceable(8) %0) unnamed_addr #1 comdat align 2 {
  %2 = alloca ptr, align 8
  store ptr %0, ptr %2, align 8, !tbaa !3
  %3 = load ptr, ptr %2, align 8
  %4 = getelementptr inbounds nuw %"class.boost::scoped_ptr", ptr %3, i32 0, i32 0
  %5 = load ptr, ptr %4, align 8, !tbaa !35
  call void @_ZN5boost14checked_deleteINS_9unit_test16progress_displayEEEvPT_(ptr noundef %5) #4
  ret void
}

; Function Attrs: inlinehint mustprogress nounwind uwtable
define internal void @_ZN5boost9unit_test12_GLOBAL__N_121progress_monitor_implD2Ev(ptr noundef nonnull align 8 dereferenceable(17) %0) unnamed_addr #7 align 2 {
  %2 = alloca ptr, align 8
  store ptr %0, ptr %2, align 8, !tbaa !3
  %3 = load ptr, ptr %2, align 8
  %4 = getelementptr inbounds nuw %"struct.boost::unit_test::(anonymous namespace)::progress_monitor_impl", ptr %3, i32 0, i32 1
  call void @_ZN5boost10scoped_ptrINS_9unit_test16progress_displayEED2Ev(ptr noundef nonnull align 8 dereferenceable(8) %4) #4
  ret void
}