; Function Attrs: inlinehint mustprogress nounwind uwtable
define internal void @_ZN5boost9unit_test12_GLOBAL__N_121progress_monitor_implD2Ev(ptr nocapture noundef nonnull readonly align 8 dereferenceable(17) %0) unnamed_addr #9 align 2 {
  %2 = getelementptr inbounds nuw i8, ptr %0, i64 8
  %3 = load ptr, ptr %2, align 8, !tbaa !22
  %4 = icmp eq ptr %3, null
  br i1 %4, label %_ZN5boost10scoped_ptrINS_9unit_test16progress_displayEED2Ev.exit, label %5

5:                                                ; preds = %1
  tail call void @_ZdlPvm(ptr noundef nonnull %3, i64 noundef 40) #24
  br label %_ZN5boost10scoped_ptrINS_9unit_test16progress_displayEED2Ev.exit

_ZN5boost10scoped_ptrINS_9unit_test16progress_displayEED2Ev.exit: ; preds = %1, %5
  ret void
}